target datalayout = "e-m:e-p270:32:32-p271:32:32-p272:64:64-i64:64-i128:128-f80:128-n8:16:32:64-S128"
target triple = "x86_64-unknown-linux-gnu"

; Function Attrs: mustprogress nounwind uwtable
define dso_local void @_Z8LUPSolvePPdPKiPKdiS_(ptr noundef %A, ptr noundef %P, ptr noundef %b, i32 noundef %N, ptr noundef %x) #4 {
entry:
  %A.addr = alloca ptr, align 8
  %P.addr = alloca ptr, align 8
  %b.addr = alloca ptr, align 8
  %N.addr = alloca i32, align 4
  %x.addr = alloca ptr, align 8
  %i = alloca i32, align 4
  %k = alloca i32, align 4
  %i19 = alloca i32, align 4
  %k24 = alloca i32, align 4
  store ptr %A, ptr %A.addr, align 8
  store ptr %P, ptr %P.addr, align 8
  store ptr %b, ptr %b.addr, align 8
  store i32 %N, ptr %N.addr, align 4
  store ptr %x, ptr %x.addr, align 8
  store i32 0, ptr %i, align 4
  br label %for.cond

for.cond:                                         ; preds = %for.inc16, %entry
  %0 = load i32, ptr %i, align 4
  %1 = load i32, ptr %N.addr, align 4
  %cmp = icmp slt i32 %0, %1
  br i1 %cmp, label %for.body, label %for.end18

for.body:                                         ; preds = %for.cond
  %2 = load ptr, ptr %b.addr, align 8
  %3 = load ptr, ptr %P.addr, align 8
  %4 = load i32, ptr %i, align 4
  %idxprom = sext i32 %4 to i64
  %arrayidx = getelementptr inbounds i32, ptr %3, i64 %idxprom
  %5 = load i32, ptr %arrayidx, align 4
  %idxprom1 = sext i32 %5 to i64
  %arrayidx2 = getelementptr inbounds double, ptr %2, i64 %idxprom1
  %6 = load double, ptr %arrayidx2, align 8
  %7 = load ptr, ptr %x.addr, align 8
  %8 = load i32, ptr %i, align 4
  %idxprom3 = sext i32 %8 to i64
  %arrayidx4 = getelementptr inbounds double, ptr %7, i64 %idxprom3
  store double %6, ptr %arrayidx4, align 8
  store i32 0, ptr %k, align 4
  br label %for.cond5

for.cond5:                                        ; preds = %for.inc, %for.body
  %9 = load i32, ptr %k, align 4
  %10 = load i32, ptr %i, align 4
  %cmp6 = icmp slt i32 %9, %10
  br i1 %cmp6, label %for.body7, label %for.end

for.body7:                                        ; preds = %for.cond5
  %11 = load ptr, ptr %A.addr, align 8
  %12 = load i32, ptr %i, align 4
  %idxprom8 = sext i32 %12 to i64
  %arrayidx9 = getelementptr inbounds ptr, ptr %11, i64 %idxprom8
  %13 = load ptr, ptr %arrayidx9, align 8
  %14 = load i32, ptr %k, align 4
  %idxprom10 = sext i32 %14 to i64
  %arrayidx11 = getelementptr inbounds double, ptr %13, i64 %idxprom10
  %15 = load double, ptr %arrayidx11, align 8
  %16 = load ptr, ptr %x.addr, align 8
  %17 = load i32, ptr %k, align 4
  %idxprom12 = sext i32 %17 to i64
  %arrayidx13 = getelementptr inbounds double, ptr %16, i64 %idxprom12
  %18 = load double, ptr %arrayidx13, align 8
  %mul = fmul double %15, %18
  %19 = load ptr, ptr %x.addr, align 8
  %20 = load i32, ptr %i, align 4
  %idxprom14 = sext i32 %20 to i64
  %arrayidx15 = getelementptr inbounds double, ptr %19, i64 %idxprom14
  %21 = load double, ptr %arrayidx15, align 8
  %sub = fsub double %21, %mul
  store double %sub, ptr %arrayidx15, align 8
  br label %for.inc

for.inc:                                          ; preds = %for.body7
  %22 = load i32, ptr %k, align 4
  %inc = add nsw i32 %22, 1
  store i32 %inc, ptr %k, align 4
  br label %for.cond5, !llvm.loop !11

for.end:                                          ; preds = %for.cond5
  br label %for.inc16

for.inc16:                                        ; preds = %for.end
  %23 = load i32, ptr %i, align 4
  %inc17 = add nsw i32 %23, 1
  store i32 %inc17, ptr %i, align 4
  br label %for.cond, !llvm.loop !12

for.end18:                                        ; preds = %for.cond
  %24 = load i32, ptr %N.addr, align 4
  %sub20 = sub nsw i32 %24, 1
  store i32 %sub20, ptr %i19, align 4
  br label %for.cond21

for.cond21:                                       ; preds = %for.inc49, %for.end18
  %25 = load i32, ptr %i19, align 4
  %cmp22 = icmp sge i32 %25, 0
  br i1 %cmp22, label %for.body23, label %for.end50

for.body23:                                       ; preds = %for.cond21
  %26 = load i32, ptr %i19, align 4
  %add = add nsw i32 %26, 1
  store i32 %add, ptr %k24, align 4
  br label %for.cond25

for.cond25:                                       ; preds = %for.inc38, %for.body23
  %27 = load i32, ptr %k24, align 4
  %28 = load i32, ptr %N.addr, align 4
  %cmp26 = icmp slt i32 %27, %28
  br i1 %cmp26, label %for.body27, label %for.end40

for.body27:                                       ; preds = %for.cond25
  %29 = load ptr, ptr %A.addr, align 8
  %30 = load i32, ptr %i19, align 4
  %idxprom28 = sext i32 %30 to i64
  %arrayidx29 = getelementptr inbounds ptr, ptr %29, i64 %idxprom28
  %31 = load ptr, ptr %arrayidx29, align 8
  %32 = load i32, ptr %k24, align 4
  %idxprom30 = sext i32 %32 to i64
  %arrayidx31 = getelementptr inbounds double, ptr %31, i64 %idxprom30
  %33 = load double, ptr %arrayidx31, align 8
  %34 = load ptr, ptr %x.addr, align 8
  %35 = load i32, ptr %k24, align 4
  %idxprom32 = sext i32 %35 to i64
  %arrayidx33 = getelementptr inbounds double, ptr %34, i64 %idxprom32
  %36 = load double, ptr %arrayidx33, align 8
  %mul34 = fmul double %33, %36
  %37 = load ptr, ptr %x.addr, align 8
  %38 = load i32, ptr %i19, align 4
  %idxprom35 = sext i32 %38 to i64
  %arrayidx36 = getelementptr inbounds double, ptr %37, i64 %idxprom35
  %39 = load double, ptr %arrayidx36, align 8
  %sub37 = fsub double %39, %mul34
  store double %sub37, ptr %arrayidx36, align 8
  br label %for.inc38

for.inc38:                                        ; preds = %for.body27
  %40 = load i32, ptr %k24, align 4
  %inc39 = add nsw i32 %40, 1
  store i32 %inc39, ptr %k24, align 4
  br label %for.cond25, !llvm.loop !13

for.end40:                                        ; preds = %for.cond25
  %41 = load ptr, ptr %x.addr, align 8
  %42 = load i32, ptr %i19, align 4
  %idxprom41 = sext i32 %42 to i64
  %arrayidx42 = getelementptr inbounds double, ptr %41, i64 %idxprom41
  %43 = load double, ptr %arrayidx42, align 8
  %44 = load ptr, ptr %A.addr, align 8
  %45 = load i32, ptr %i19, align 4
  %idxprom43 = sext i32 %45 to i64
  %arrayidx44 = getelementptr inbounds ptr, ptr %44, i64 %idxprom43
  %46 = load ptr, ptr %arrayidx44, align 8
  %47 = load i32, ptr %i19, align 4
  %idxprom45 = sext i32 %47 to i64
  %arrayidx46 = getelementptr inbounds double, ptr %46, i64 %idxprom45
  %48 = load double, ptr %arrayidx46, align 8
  %div = fdiv double %43, %48
  %49 = load ptr, ptr %x.addr, align 8
  %50 = load i32, ptr %i19, align 4
  %idxprom47 = sext i32 %50 to i64
  %arrayidx48 = getelementptr inbounds double, ptr %49, i64 %idxprom47
  store double %div, ptr %arrayidx48, align 8
  br label %for.inc49

for.inc49:                                        ; preds = %for.end40
  %51 = load i32, ptr %i19, align 4
  %dec = add nsw i32 %51, -1
  store i32 %dec, ptr %i19, align 4
  br label %for.cond21, !llvm.loop !14

for.end50:                                        ; preds = %for.cond21
  ret void
}