; Function Attrs: mustprogress nofree norecurse nosync nounwind memory(read, argmem: readwrite, inaccessiblemem: none) uwtable
define dso_local void @_Z8LUPSolvePPdPKiPKdiS_(ptr nocapture noundef readonly %A, ptr nocapture noundef readonly %P, ptr nocapture noundef readonly %b, i32 noundef %N, ptr nocapture noundef %x) local_unnamed_addr #6 {
entry:
  %cmp33 = icmp sgt i32 %N, 0
  br i1 %cmp33, label %for.body.preheader, label %for.end50

for.body.preheader:                               ; preds = %entry
  %wide.trip.count45 = zext nneg i32 %N to i64
  br label %for.body

for.cond21.preheader:                             ; preds = %for.inc16
  br i1 %cmp33, label %for.cond25.preheader.preheader, label %for.end50

for.cond25.preheader.preheader:                   ; preds = %for.cond21.preheader
  %0 = zext nneg i32 %N to i64
  %1 = zext nneg i32 %N to i64
  br label %for.cond25.preheader

for.body:                                         ; preds = %for.body.preheader, %for.inc16
  %indvars.iv42 = phi i64 [ 0, %for.body.preheader ], [ %indvars.iv.next43, %for.inc16 ]
  %arrayidx = getelementptr inbounds i32, ptr %P, i64 %indvars.iv42
  %2 = load i32, ptr %arrayidx, align 4
  %idxprom1 = sext i32 %2 to i64
  %arrayidx2 = getelementptr inbounds double, ptr %b, i64 %idxprom1
  %3 = load double, ptr %arrayidx2, align 8
  %arrayidx4 = getelementptr inbounds double, ptr %x, i64 %indvars.iv42
  store double %3, ptr %arrayidx4, align 8
  %cmp631.not = icmp eq i64 %indvars.iv42, 0
  br i1 %cmp631.not, label %for.inc16, label %for.body7.lr.ph

for.body7.lr.ph:                                  ; preds = %for.body
  %arrayidx9 = getelementptr inbounds ptr, ptr %A, i64 %indvars.iv42
  br label %for.body7

for.body7:                                        ; preds = %for.body7.lr.ph, %for.body7
  %4 = phi double [ %3, %for.body7.lr.ph ], [ %sub, %for.body7 ]
  %indvars.iv = phi i64 [ 0, %for.body7.lr.ph ], [ %indvars.iv.next, %for.body7 ]
  %5 = load ptr, ptr %arrayidx9, align 8
  %arrayidx11 = getelementptr inbounds double, ptr %5, i64 %indvars.iv
  %6 = load double, ptr %arrayidx11, align 8
  %arrayidx13 = getelementptr inbounds double, ptr %x, i64 %indvars.iv
  %7 = load double, ptr %arrayidx13, align 8
  %mul = fmul double %6, %7
  %sub = fsub double %4, %mul
  store double %sub, ptr %arrayidx4, align 8
  %indvars.iv.next = add nuw nsw i64 %indvars.iv, 1
  %exitcond.not = icmp eq i64 %indvars.iv.next, %indvars.iv42
  br i1 %exitcond.not, label %for.inc16, label %for.body7, !llvm.loop !11

for.inc16:                                        ; preds = %for.body7, %for.body
  %indvars.iv.next43 = add nuw nsw i64 %indvars.iv42, 1
  %exitcond46.not = icmp eq i64 %indvars.iv.next43, %wide.trip.count45
  br i1 %exitcond46.not, label %for.cond21.preheader, label %for.body, !llvm.loop !12

for.cond25.preheader:                             ; preds = %for.cond25.preheader.preheader, %for.end40
  %indvars.iv47 = phi i64 [ %0, %for.cond25.preheader.preheader ], [ %indvars.iv.next48, %for.end40 ]
  %indvars.iv.next48 = add nsw i64 %indvars.iv47, -1
  %cmp2635 = icmp slt i64 %indvars.iv47, %1
  br i1 %cmp2635, label %for.body27.lr.ph, label %for.cond25.preheader.for.end40_crit_edge

for.cond25.preheader.for.end40_crit_edge:         ; preds = %for.cond25.preheader
  %arrayidx42.phi.trans.insert = getelementptr inbounds double, ptr %x, i64 %indvars.iv.next48
  %.pre53 = load double, ptr %arrayidx42.phi.trans.insert, align 8
  br label %for.end40

for.body27.lr.ph:                                 ; preds = %for.cond25.preheader
  %arrayidx29 = getelementptr inbounds ptr, ptr %A, i64 %indvars.iv.next48
  %arrayidx36 = getelementptr inbounds double, ptr %x, i64 %indvars.iv.next48
  %.pre = load double, ptr %arrayidx36, align 8
  br label %for.body27

for.body27:                                       ; preds = %for.body27.lr.ph, %for.body27
  %8 = phi double [ %.pre, %for.body27.lr.ph ], [ %sub37, %for.body27 ]
  %indvars.iv49 = phi i64 [ %indvars.iv47, %for.body27.lr.ph ], [ %indvars.iv.next50, %for.body27 ]
  %9 = load ptr, ptr %arrayidx29, align 8
  %arrayidx31 = getelementptr inbounds double, ptr %9, i64 %indvars.iv49
  %10 = load double, ptr %arrayidx31, align 8
  %arrayidx33 = getelementptr inbounds double, ptr %x, i64 %indvars.iv49
  %11 = load double, ptr %arrayidx33, align 8
  %mul34 = fmul double %10, %11
  %sub37 = fsub double %8, %mul34
  store double %sub37, ptr %arrayidx36, align 8
  %indvars.iv.next50 = add nuw nsw i64 %indvars.iv49, 1
  %12 = trunc i64 %indvars.iv.next50 to i32
  %cmp26 = icmp slt i32 %12, %N
  br i1 %cmp26, label %for.body27, label %for.end40, !llvm.loop !13

for.end40:                                        ; preds = %for.body27, %for.cond25.preheader.for.end40_crit_edge
  %13 = phi double [ %.pre53, %for.cond25.preheader.for.end40_crit_edge ], [ %sub37, %for.body27 ]
  %arrayidx42 = getelementptr inbounds double, ptr %x, i64 %indvars.iv.next48
  %arrayidx44 = getelementptr inbounds ptr, ptr %A, i64 %indvars.iv.next48
  %14 = load ptr, ptr %arrayidx44, align 8
  %arrayidx46 = getelementptr inbounds double, ptr %14, i64 %indvars.iv.next48
  %15 = load double, ptr %arrayidx46, align 8
  %div = fdiv double %13, %15
  store double %div, ptr %arrayidx42, align 8
  %cmp22 = icmp sgt i64 %indvars.iv47, 1
  br i1 %cmp22, label %for.cond25.preheader, label %for.end50, !llvm.loop !14

for.end50:                                        ; preds = %for.end40, %entry, %for.cond21.preheader
  ret void
}